target datalayout = "e-m:e-p270:32:32-p271:32:32-p272:64:64-i64:64-i128:128-f80:128-n8:16:32:64-S128"
target triple = "x86_64-pc-linux-gnu"

%struct.ItemPointerData = type { %struct.BlockIdData, i16 }
%struct.BlockIdData = type { i16, i16 }
%struct.HeapTupleData = type { i32, %struct.ItemPointerData, i32, ptr }
%struct.ScanKeyData = type { i32, i16, i16, i32, i32, %struct.FmgrInfo, i64 }
%struct.FmgrInfo = type { ptr, i32, i16, i8, i8, i8, ptr, ptr, ptr }

; Function Attrs: inlinehint nounwind uwtable
define internal i64 @Int16GetDatum(i16 noundef signext %0) #5 {
  %2 = alloca i16, align 2
  store i16 %0, ptr %2, align 2
  %3 = load i16, ptr %2, align 2
  %4 = sext i16 %3 to i64
  ret i64 %4
}

; Function Attrs: inlinehint nounwind uwtable
define internal i64 @ObjectIdGetDatum(i32 noundef %0) #5 {
  %2 = alloca i32, align 4
  store i32 %0, ptr %2, align 4
  %3 = load i32, ptr %2, align 4
  %4 = zext i32 %3 to i64
  ret i64 %4
}

; Function Attrs: nounwind uwtable
define dso_local void @DeleteSystemAttributeTuples(i32 noundef %0) #0 {
  %2 = alloca i32, align 4
  %3 = alloca ptr, align 8
  %4 = alloca ptr, align 8
  %5 = alloca [2 x %struct.ScanKeyData], align 16
  %6 = alloca ptr, align 8
  store i32 %0, ptr %2, align 4
  call void @llvm.lifetime.start.p0(i64 8, ptr %3) #10
  call void @llvm.lifetime.start.p0(i64 8, ptr %4) #10
  call void @llvm.lifetime.start.p0(i64 144, ptr %5) #10
  call void @llvm.lifetime.start.p0(i64 8, ptr %6) #10
  %7 = call ptr @table_open(i32 noundef 1249, i32 noundef 3)
  store ptr %7, ptr %3, align 8
  %8 = getelementptr inbounds [2 x %struct.ScanKeyData], ptr %5, i64 0, i64 0
  %9 = load i32, ptr %2, align 4
  %10 = call i64 @ObjectIdGetDatum(i32 noundef %9)
  call void @ScanKeyInit(ptr noundef %8, i16 noundef signext 1, i16 noundef zeroext 3, i32 noundef 184, i64 noundef %10)
  %11 = getelementptr inbounds [2 x %struct.ScanKeyData], ptr %5, i64 0, i64 1
  %12 = call i64 @Int16GetDatum(i16 noundef signext 0)
  call void @ScanKeyInit(ptr noundef %11, i16 noundef signext 5, i16 noundef zeroext 2, i32 noundef 148, i64 noundef %12)
  %13 = load ptr, ptr %3, align 8
  %14 = getelementptr inbounds [2 x %struct.ScanKeyData], ptr %5, i64 0, i64 0
  %15 = call ptr @systable_beginscan(ptr noundef %13, i32 noundef 2659, i1 noundef zeroext true, ptr noundef null, i32 noundef 2, ptr noundef %14)
  store ptr %15, ptr %4, align 8
  br label %16

16:                                               ; preds = %20, %1
  %17 = load ptr, ptr %4, align 8
  %18 = call ptr @systable_getnext(ptr noundef %17)
  store ptr %18, ptr %6, align 8
  %19 = icmp ne ptr %18, null
  br i1 %19, label %20, label %24

20:                                               ; preds = %16
  %21 = load ptr, ptr %3, align 8
  %22 = load ptr, ptr %6, align 8
  %23 = getelementptr inbounds nuw %struct.HeapTupleData, ptr %22, i32 0, i32 1
  call void @CatalogTupleDelete(ptr noundef %21, ptr noundef %23)
  br label %16, !llvm.loop !19

24:                                               ; preds = %16
  %25 = load ptr, ptr %4, align 8
  call void @systable_endscan(ptr noundef %25)
  %26 = load ptr, ptr %3, align 8
  call void @table_close(ptr noundef %26, i32 noundef 3)
  call void @llvm.lifetime.end.p0(i64 8, ptr %6) #10
  call void @llvm.lifetime.end.p0(i64 144, ptr %5) #10
  call void @llvm.lifetime.end.p0(i64 8, ptr %4) #10
  call void @llvm.lifetime.end.p0(i64 8, ptr %3) #10
  ret void
}